ccopy_reg
_reconstructor
p0
(cFWCore.ParameterSet.Config
Process
p1
c__builtin__
object
p2
Ntp3
Rp4
(dp5
V_Process__name
p6
VReco
p7
sV_Process__filters
p8
(dp9
sV_Process__producers
p10
(dp11
sV_Process__switchproducers
p12
(dp13
sV_Process__source
p14
g0
(cFWCore.ParameterSet.Modules
Source
p15
g2
Ntp16
Rp17
(dp18
V_TypedParameterizable__type
p19
VPoolSource
p20
sV_Parameterizable__parameterNames
p21
(lp22
VfileNames
p23
asV_isFrozen
p24
I00
sV_Parameterizable__validator
p25
Nsg23
g0
(cFWCore.ParameterSet.Types
vstring
p26
c__builtin__
list
p27
(lp28
Vfile:863EAD78-D853-F348-B135-00B596FB6478.root
p29
atp30
Rp31
(dp32
g24
I00
sV_ParameterTypeBase__isTracked
p33
I00
sV_isModified
p34
I00
sV_nPerLine
p35
I1
sbsg34
I00
sV_filename
p36
V/cvmfs/cms.cern.ch/slc7_amd64_gcc900/cms/cmssw/CMSSW_12_0_0/python/FWCore/ParameterSet/Modules.py
p37
sV_lineNumber
p38
I195
sbsV_Process__looper
p39
NsV_Process__subProcesses
p40
(lp41
sV_Process__schedule
p42
NsV_Process__analyzers
p43
(dp44
Vtrigger
p45
g0
(cFWCore.ParameterSet.Modules
EDAnalyzer
p46
g2
Ntp47
Rp48
(dp49
g19
VTriggerAnalyzer
p50
sg21
(lp51
Vbits
p52
asg24
I00
sg25
Nsg52
g0
(cFWCore.ParameterSet.Types
InputTag
p53
g2
Ntp54
Rp55
(dp56
g24
I00
sg33
I01
sg34
I00
sV_InputTag__moduleLabel
p57
VTriggerResults
p58
sV_InputTag__productInstance
p59
V
p60
sV_InputTag__processName
p61
VHLT
p62
sbsg34
I00
sg36
V/eos/home-a/anpetkov/ElectronReconstructionUL_MyTool/CMSSW_12_0_0/src/Reco/RecoAnalyzer/python/ConfFile_cfg.py
p63
sg38
I12
sV_Labelable__label
p64
g45
sbsVreco
p65
g0
(g46
g2
Ntp66
Rp67
(dp68
g19
VRecoAnalyzer
p69
sg21
(lp70
VElectron
p71
aVSuperClusterEB
p72
aVSuperClusterEE
p73
asg24
I00
sg25
Nsg71
g0
(g53
g2
Ntp74
Rp75
(dp76
g24
I00
sg33
I00
sg34
I00
sg57
VgedGsfElectrons
p77
sg59
g60
sg61
g60
sbsg34
I00
sg72
g0
(g53
g2
Ntp78
Rp79
(dp80
g24
I00
sg33
I00
sg34
I00
sg57
VparticleFlowSuperClusterECAL
p81
sg59
VparticleFlowSuperClusterECALBarrel
p82
sg61
g60
sbsg73
g0
(g53
g2
Ntp83
Rp84
(dp85
g24
I00
sg33
I00
sg34
I00
sg57
g81
sg59
VparticleFlowSuperClusterECALEndcapWithPreshower
p86
sg61
g60
sbsg36
g63
sg38
I16
sg64
g65
sbssV_Process__outputmodules
p87
(dp88
sV_Process__paths
p89
g0
(cFWCore.ParameterSet.DictTypes
SortedKeysDict
p90
c__builtin__
dict
p91
(dp92
Vp
p93
g0
(cFWCore.ParameterSet.SequenceTypes
Path
p94
g2
Ntp95
Rp96
(dp97
g24
I00
sV_seq
p98
g0
(cFWCore.ParameterSet.SequenceTypes
_SequenceCollection
p99
g2
Ntp100
Rp101
(dp102
V_collection
p103
(lp104
g67
asbsg34
I00
sV_tasks
p105
g0
(cFWCore.ParameterSet.OrderedSet
OrderedSet
p106
g2
Ntp107
Rp108
(dp109
Vend
p110
(lp111
Nag111
ag111
asVmap
p112
(dp113
sbsg64
g93
sbstp114
Rp115
(dp116
Vlist
p117
(lp118
g93
asbsV_Process__endpaths
p119
g0
(g90
g91
(dp120
tp121
Rp122
(dp123
g117
(lp124
sbsV_Process__sequences
p125
(dp126
sV_Process__tasks
p127
(dp128
sV_Process__services
p129
(dp130
VMessageLogger
p131
g0
(cFWCore.ParameterSet.Modules
Service
p132
g2
Ntp133
Rp134
(dp135
g19
g131
sg21
(lp136
VsuppressWarning
p137
aVsuppressFwkInfo
p138
aVsuppressInfo
p139
aVsuppressDebug
p140
aVdebugModules
p141
aVcout
p142
aVdefault
p143
aVcerr
p144
aVfiles
p145
asg24
I00
sg25
g0
(cFWCore.ParameterSet.Types
_OptionalParameter
p146
g2
Ntp147
Rp148
(dp149
g24
I00
sg33
I00
sg34
I00
sV_ProxyParameter__type
p150
g0
(cFWCore.ParameterSet.Types
_PSetTemplate
p151
g2
Ntp152
Rp153
(dp154
V_pset
p155
g0
(cFWCore.ParameterSet.Types
PSet
p156
g2
Ntp157
Rp158
(dp159
g24
I00
sg33
I01
sg34
I00
sg21
(lp160
VreportEvery
p161
aVlimit
p162
aVtimespan
p163
asg25
Nsg161
g0
(cFWCore.ParameterSet.Types
int32
p164
g2
Ntp165
Rp166
(dp167
g24
I00
sg33
I00
sg34
I00
sV_value
p168
I1
sbsg162
g0
(g146
g2
Ntp169
Rp170
(dp171
g24
I00
sg33
I00
sg34
I00
sg150
g164
sV_ProxyParameter__value
p172
Nsbsg163
g0
(g146
g2
Ntp173
Rp174
(dp175
g24
I00
sg33
I00
sg34
I00
sg150
g164
sg172
NsbsbsV_PSetTemplate__value
p176
Nsbsg172
Nsbsg137
g0
(g26
g27
(lp177
tp178
Rp179
(dp180
g24
I00
sg33
I00
sg34
I00
sg35
I1
sbsg34
I00
sg138
g0
(g26
g27
(lp181
tp182
Rp183
(dp184
g24
I00
sg33
I00
sg34
I00
sg35
I1
sbsg139
g0
(g26
g27
(lp185
tp186
Rp187
(dp188
g24
I00
sg33
I00
sg34
I00
sg35
I1
sbsg140
g0
(g26
g27
(lp189
tp190
Rp191
(dp192
g24
I00
sg33
I00
sg34
I00
sg35
I1
sbsg141
g0
(g26
g27
(lp193
tp194
Rp195
(dp196
g24
I00
sg33
I00
sg34
I00
sg35
I1
sbsg142
g0
(g156
g2
Ntp197
Rp198
(dp199
g24
I00
sg33
I00
sg34
I00
sg21
(lp200
VnoLineBreaks
p201
aVnoTimeStamps
p202
aVlineLength
p203
aVthreshold
p204
aVstatisticsThreshold
p205
aVenableStatistics
p206
aVresetStatistics
p207
aVenable
p208
asg25
g148
sg201
g0
(g146
g2
Ntp209
Rp210
(dp211
g24
I00
sg33
I00
sg34
I00
sg150
cFWCore.ParameterSet.Types
bool
p212
sg172
Nsbsg202
g0
(g146
g2
Ntp213
Rp214
(dp215
g24
I00
sg33
I00
sg34
I00
sg150
g212
sg172
Nsbsg203
g0
(g146
g2
Ntp216
Rp217
(dp218
g24
I00
sg33
I00
sg34
I00
sg150
g164
sg172
Nsbsg204
g0
(g146
g2
Ntp219
Rp220
(dp221
g24
I00
sg33
I00
sg34
I00
sg150
cFWCore.ParameterSet.Types
string
p222
sg172
Nsbsg205
g0
(g146
g2
Ntp223
Rp224
(dp225
g24
I00
sg33
I00
sg34
I00
sg150
g222
sg172
Nsbsg206
g0
(g212
g2
Ntp226
Rp227
(dp228
g24
I00
sg33
I00
sg34
I00
sg168
I00
sbsg207
g0
(g212
g2
Ntp229
Rp230
(dp231
g24
I00
sg33
I00
sg34
I00
sg168
I00
sbsg208
g0
(g212
g2
Ntp232
Rp233
(dp234
g24
I00
sg33
I00
sg34
I00
sg168
I00
sbsbsg143
g0
(g156
g2
Ntp235
Rp236
(dp237
g24
I00
sg33
I00
sg34
I00
sg21
(lp238
g161
ag162
ag163
ag201
ag202
ag203
ag204
ag205
asg25
g148
sg161
g0
(g164
g2
Ntp239
Rp240
(dp241
g24
I00
sg33
I00
sg34
I00
sg168
I1
sbsg162
g0
(g146
g2
Ntp242
Rp243
(dp244
g24
I00
sg33
I00
sg34
I00
sg150
g164
sg172
Nsbsg163
g0
(g146
g2
Ntp245
Rp246
(dp247
g24
I00
sg33
I00
sg34
I00
sg150
g164
sg172
Nsbsg201
g0
(g212
g2
Ntp248
Rp249
(dp250
g24
I00
sg33
I00
sg34
I00
sg168
I00
sbsg202
g0
(g212
g2
Ntp251
Rp252
(dp253
g24
I00
sg33
I00
sg34
I00
sg168
I00
sbsg203
g0
(g164
g2
Ntp254
Rp255
(dp256
g24
I00
sg33
I00
sg34
I00
sg168
I80
sbsg204
g0
(g222
g2
Ntp257
Rp258
(dp259
g24
I00
sg33
I00
sg34
I00
sg168
VINFO
p260
sbsg205
g0
(g222
g2
Ntp261
Rp262
(dp263
g24
I00
sg33
I00
sg34
I00
sg168
g260
sbsbsg144
g0
(g156
g2
Ntp264
Rp265
(dp266
g24
I00
sg33
I00
sg34
I00
sg21
(lp267
g201
ag202
ag203
ag204
ag205
ag208
ag206
ag207
ag260
aVFwkReport
p268
ag143
aVRoot_NoDictionary
p269
aVFwkSummary
p270
asg25
g148
sg201
g0
(g146
g2
Ntp271
Rp272
(dp273
g24
I00
sg33
I00
sg34
I00
sg150
g212
sg172
Nsbsg202
g0
(g212
g2
Ntp274
Rp275
(dp276
g24
I00
sg33
I00
sg34
I00
sg168
I00
sbsg203
g0
(g146
g2
Ntp277
Rp278
(dp279
g24
I00
sg33
I00
sg34
I00
sg150
g164
sg172
Nsbsg204
g0
(g222
g2
Ntp280
Rp281
(dp282
g24
I00
sg33
I00
sg34
I00
sg168
g260
sbsg205
g0
(g222
g2
Ntp283
Rp284
(dp285
g24
I00
sg33
I00
sg34
I00
sg168
VWARNING
p286
sbsg208
g0
(g212
g2
Ntp287
Rp288
(dp289
g24
I00
sg33
I00
sg34
I00
sg168
I01
sbsg206
g0
(g212
g2
Ntp290
Rp291
(dp292
g24
I00
sg33
I00
sg34
I00
sg168
I01
sbsg207
g0
(g212
g2
Ntp293
Rp294
(dp295
g24
I00
sg33
I00
sg34
I00
sg168
I00
sbsg260
g0
(g156
g2
Ntp296
Rp297
(dp298
g24
I00
sg33
I00
sg34
I00
sg21
(lp299
g162
asg25
Nsg162
g0
(g164
g2
Ntp300
Rp301
(dp302
g24
I00
sg33
I00
sg34
I00
sg168
I0
sbsbsg268
g0
(g156
g2
Ntp303
Rp304
(dp305
g24
I00
sg33
I00
sg34
I01
sg21
(lp306
g161
ag162
asg25
Nsg161
g0
(g164
g2
Ntp307
Rp308
(dp309
g24
I00
sg33
I00
sg34
I01
sg168
I100000
sbsg162
g0
(g164
g2
Ntp310
Rp311
(dp312
g24
I00
sg33
I00
sg34
I00
sg168
I10000000
sbsbsg143
g0
(g156
g2
Ntp313
Rp314
(dp315
g24
I00
sg33
I00
sg34
I00
sg21
(lp316
g162
asg25
Nsg162
g0
(g164
g2
Ntp317
Rp318
(dp319
g24
I00
sg33
I00
sg34
I00
sg168
I10000000
sbsbsg269
g0
(g156
g2
Ntp320
Rp321
(dp322
g24
I00
sg33
I00
sg34
I00
sg21
(lp323
g162
asg25
Nsg162
g0
(g164
g2
Ntp324
Rp325
(dp326
g24
I00
sg33
I00
sg34
I00
sg168
I0
sbsbsg270
g0
(g156
g2
Ntp327
Rp328
(dp329
g24
I00
sg33
I00
sg34
I00
sg21
(lp330
g161
ag162
asg25
Nsg161
g0
(g164
g2
Ntp331
Rp332
(dp333
g24
I00
sg33
I00
sg34
I00
sg168
I1
sbsg162
g0
(g164
g2
Ntp334
Rp335
(dp336
g24
I00
sg33
I00
sg34
I00
sg168
I10000000
sbsbsbsg145
g0
(g156
g2
Ntp337
Rp338
(dp339
g24
I00
sg33
I00
sg34
I00
sg21
(lp340
sg25
g0
(g146
g2
Ntp341
Rp342
(dp343
g24
I00
sg33
I00
sg34
I00
sg150
g0
(g151
g2
Ntp344
Rp345
(dp346
g155
g0
(g156
g2
Ntp347
Rp348
(dp349
g24
I00
sg33
I01
sg34
I00
sg21
(lp350
g201
ag202
ag203
ag204
ag205
ag206
ag207
aVfilename
p351
aVextension
p352
aVoutput
p353
asg25
g148
sg201
g0
(g146
g2
Ntp354
Rp355
(dp356
g24
I00
sg33
I00
sg34
I00
sg150
g212
sg172
Nsbsg202
g0
(g146
g2
Ntp357
Rp358
(dp359
g24
I00
sg33
I00
sg34
I00
sg150
g212
sg172
Nsbsg203
g0
(g146
g2
Ntp360
Rp361
(dp362
g24
I00
sg33
I00
sg34
I00
sg150
g164
sg172
Nsbsg204
g0
(g146
g2
Ntp363
Rp364
(dp365
g24
I00
sg33
I00
sg34
I00
sg150
g222
sg172
Nsbsg205
g0
(g146
g2
Ntp366
Rp367
(dp368
g24
I00
sg33
I00
sg34
I00
sg150
g222
sg172
Nsbsg206
g0
(g212
g2
Ntp369
Rp370
(dp371
g24
I00
sg33
I00
sg34
I00
sg168
I00
sbsg207
g0
(g212
g2
Ntp372
Rp373
(dp374
g24
I00
sg33
I00
sg34
I00
sg168
I00
sbsg351
g0
(g146
g2
Ntp375
Rp376
(dp377
g24
I00
sg33
I00
sg34
I00
sg150
g222
sg172
Nsbsg352
g0
(g146
g2
Ntp378
Rp379
(dp380
g24
I00
sg33
I00
sg34
I00
sg150
g222
sg172
Nsbsg353
g0
(g146
g2
Ntp381
Rp382
(dp383
g24
I00
sg33
I00
sg34
I00
sg150
g222
sg172
Nsbsbsg176
Nsbsg172
Nsbsbsg36
g37
sg38
I13
sV_inProcess
p384
I01
sbsVTFileService
p385
g0
(g132
g2
Ntp386
Rp387
(dp388
g19
g385
sg21
(lp389
VfileName
p390
asg24
I00
sg25
Nsg390
g0
(g222
g2
Ntp391
Rp392
(dp393
g24
I00
sg33
I01
sg34
I00
sg168
VReco_tree.root
p394
sbsg34
I00
sg36
g37
sg38
I13
sg384
I01
sbssV_Process__essources
p395
(dp396
sV_Process__esproducers
p397
(dp398
sV_Process__esprefers
p399
(dp400
sV_Process__aliases
p401
(dp402
sV_Process__psets
p403
(dp404
Voptions
p405
g0
(g156
g2
Ntp406
Rp407
(dp408
g24
I00
sg33
I00
sg34
I01
sg21
(lp409
VnumberOfThreads
p410
aVnumberOfStreams
p411
aVnumberOfConcurrentRuns
p412
aVnumberOfConcurrentLuminosityBlocks
p413
aVeventSetup
p414
aVwantSummary
p415
aVfileMode
p416
aVforceEventSetupCacheClearOnNewRun
p417
aVthrowIfIllegalParameter
p418
aVprintDependencies
p419
aVdeleteNonConsumedUnscheduledModules
p420
aVsizeOfStackForThreadsInKB
p421
aVRethrow
p422
aVSkipEvent
p423
aVFailPath
p424
aVIgnoreCompletely
p425
aVcanDeleteEarly
p426
aVdumpOptions
p427
aVallowUnscheduled
p428
aVemptyRunLumiMode
p429
aVmakeTriggerResults
p430
asg25
Nsg410
g0
(cFWCore.ParameterSet.Types
uint32
p431
g2
Ntp432
Rp433
(dp434
g24
I00
sg33
I00
sg34
I00
sg168
I1
sbsg411
g0
(g431
g2
Ntp435
Rp436
(dp437
g24
I00
sg33
I00
sg34
I00
sg168
I0
sbsg412
g0
(g431
g2
Ntp438
Rp439
(dp440
g24
I00
sg33
I00
sg34
I00
sg168
I1
sbsg413
g0
(g431
g2
Ntp441
Rp442
(dp443
g24
I00
sg33
I00
sg34
I00
sg168
I0
sbsg414
g0
(g156
g2
Ntp444
Rp445
(dp446
g24
I00
sg33
I00
sg34
I00
sg21
(lp447
VnumberOfConcurrentIOVs
p448
aVforceNumberOfConcurrentIOVs
p449
asg25
Nsg448
g0
(g431
g2
Ntp450
Rp451
(dp452
g24
I00
sg33
I00
sg34
I00
sg168
I0
sbsg449
g0
(g156
g2
Ntp453
Rp454
(dp455
g24
I00
sg33
I00
sg34
I00
sg21
(lp456
sg25
g0
(cFWCore.ParameterSet.Types
_RequiredParameter
p457
g2
Ntp458
Rp459
(dp460
g24
I00
sg33
I00
sg34
I00
sg150
g431
sg172
Nsbsbsbsg415
g0
(g212
g2
Ntp461
Rp462
(dp463
g24
I00
sg33
I00
sg34
I00
sg168
I00
sbsg416
g0
(g222
g2
Ntp464
Rp465
(dp466
g24
I00
sg33
I00
sg34
I00
sg168
VFULLMERGE
p467
sbsg417
g0
(g212
g2
Ntp468
Rp469
(dp470
g24
I00
sg33
I00
sg34
I00
sg168
I00
sbsg418
g0
(g212
g2
Ntp471
Rp472
(dp473
g24
I00
sg33
I00
sg34
I00
sg168
I01
sbsg419
g0
(g212
g2
Ntp474
Rp475
(dp476
g24
I00
sg33
I00
sg34
I00
sg168
I00
sbsg420
g0
(g212
g2
Ntp477
Rp478
(dp479
g24
I00
sg33
I00
sg34
I00
sg168
I01
sbsg421
g0
(g146
g2
Ntp480
Rp481
(dp482
g24
I00
sg33
I00
sg34
I00
sg150
g431
sg172
Nsbsg422
g0
(g26
g27
(lp483
tp484
Rp485
(dp486
g24
I00
sg33
I00
sg34
I00
sg35
I1
sbsg423
g0
(g26
g27
(lp487
tp488
Rp489
(dp490
g24
I00
sg33
I00
sg34
I00
sg35
I1
sbsg424
g0
(g26
g27
(lp491
tp492
Rp493
(dp494
g24
I00
sg33
I00
sg34
I00
sg35
I1
sbsg425
g0
(g26
g27
(lp495
tp496
Rp497
(dp498
g24
I00
sg33
I00
sg34
I00
sg35
I1
sbsg426
g0
(g26
g27
(lp499
tp500
Rp501
(dp502
g24
I00
sg33
I00
sg34
I00
sg35
I1
sbsg427
g0
(g212
g2
Ntp503
Rp504
(dp505
g24
I00
sg33
I00
sg34
I00
sg168
I00
sbsg428
g0
(cFWCore.ParameterSet.Types
_ObsoleteParameter
p506
g2
Ntp507
Rp508
(dp509
g24
I00
sg33
I00
sg34
I00
sg150
g212
sg172
Nsbsg429
g0
(g506
g2
Ntp510
Rp511
(dp512
g24
I00
sg33
I00
sg34
I00
sg150
g222
sg172
Nsbsg430
g0
(g506
g2
Ntp513
Rp514
(dp515
g24
I00
sg33
I00
sg34
I00
sg150
g212
sg172
Nsbsg64
g405
sbsVmaxLuminosityBlocks
p516
g0
(g156
g2
Ntp517
Rp518
(dp519
g24
I00
sg33
I00
sg34
I00
sg21
(lp520
Vinput
p521
asg25
Nsg521
g0
(g164
g2
Ntp522
Rp523
(dp524
g24
I00
sg33
I00
sg34
I00
sg168
I-1
sbsg64
g516
sbsVmaxEvents
p525
g0
(g156
g2
Ntp526
Rp527
(dp528
g24
I00
sg33
I00
sg34
I01
sg21
(lp529
g521
ag353
asg25
Nsg521
g0
(g164
g2
Ntp530
Rp531
(dp532
g24
I00
sg33
I00
sg34
I00
sg168
I10000
sbsg353
g0
(g146
g2
Ntp533
Rp534
(dp535
g24
I00
sg33
I00
sg34
I00
sg150
g0
(cFWCore.ParameterSet.Types
_AllowedParameterTypes
p536
g2
Ntp537
Rp538
(dp539
V_AllowedParameterTypes__types
p540
(g164
g156
tp541
sV_AllowedParameterTypes__value
p542
NsV__name__
p543
Vallowed(cms.int32,cms.PSet)
p544
sbsg172
Nsbsg64
g525
sbssV_Process__vpsets
p545
(dp546
sV_cloneToObjectDict
p547
(dp548
L140599222939760L
g407
sL140599228716896L
g0
(g156
g2
Ntp549
Rp550
(dp551
g24
I00
sg33
I00
sg34
I01
sg21
(lp552
g521
ag353
asg25
Nsg521
g0
(g146
g2
Ntp553
Rp554
(dp555
g24
I00
sg33
I00
sg34
I00
sg150
g164
sg172
Nsbsg353
g0
(g146
g2
Ntp556
Rp557
(dp558
g24
I00
sg33
I00
sg34
I00
sg150
g0
(g536
g2
Ntp559
Rp560
(dp561
g540
(g164
g156
tp562
sg542
Nsg543
Vallowed(cms.int32,cms.PSet)
p563
sbsg172
Nsbsg64
NsbsL140599228716992L
g518
sL140599224384000L
g527
sL140599224383472L
g48
sL140599224383856L
g67
sL140599224381504L
g96
ssV_Process__InExtendCall
p564
I00
sV_Process__partialschedules
p565
(dp566
sV_Process__isStrict
p567
I00
sV_Process__modifiers
p568
(tsg405
g407
sg516
g518
sg131
g134
sg525
g527
sVsource
p569
g17
sg20
g17
sg45
g48
sg65
g67
sg385
g387
sg93
g96
sb.