(dp0
VServer
p1
Vcmsweb.cern.ch
p2
sVPort
p3
V
p4
sVRequestName
p5
V230102_180221:anpetkov_crab_Bpark_AOD_DATA_BPH2_runA_UL_v1
p6
sVvoRole
p7
VNULL
p8
sVvoGroup
p9
g4
sVinstance
p10
Vprod
p11
sVOriginalConfig
p12
ccopy_reg
_reconstructor
p13
(cWMCore.Configuration
Configuration
p14
c__builtin__
object
p15
Ntp16
Rp17
(dp18
V_internal_sections
p19
(lp20
VGeneral
p21
aVJobType
p22
aVData
p23
aVSite
p24
aVUser
p25
aVDebug
p26
asg21
g13
(cWMCore.Configuration
ConfigSection
p27
g15
Ntp28
Rp29
(dp30
V_internal_documentation
p31
g4
sV_internal_name
p32
g21
sV_internal_settings
p33
c__builtin__
set
p34
((lp35
VrequestName
p36
aVworkArea
p37
aVtransferOutputs
p38
atp39
Rp40
sV_internal_docstrings
p41
(dp42
sV_internal_children
p43
g34
((lp44
tp45
Rp46
sV_internal_parent_ref
p47
NsV_internal_skipChecks
p48
I00
sg36
VBpark_AOD_DATA_BPH2_runA_UL_v1
p49
sg37
Vcrab_projects
p50
sg38
I01
sbsg22
g13
(g27
g15
Ntp51
Rp52
(dp53
g31
g4
sg32
g22
sg33
g34
((lp54
VpsetName
p55
aVpluginName
p56
atp57
Rp58
sg41
(dp59
sg43
g34
((lp60
tp61
Rp62
sg47
Nsg48
I00
sg56
VAnalysis
p63
sg55
VConfFile_cfg.py
p64
sbsg23
g13
(g27
g15
Ntp65
Rp66
(dp67
g31
g4
sg32
g23
sg33
g34
((lp68
VoutputDatasetTag
p69
aVsplitting
p70
aVinputDataset
p71
aVinputDBS
p72
aVpublication
p73
atp74
Rp75
sg41
(dp76
sg43
g34
((lp77
tp78
Rp79
sg47
Nsg48
I00
sg71
V/ParkingBPH2/Run2018A-20Jun2021_UL2018-v1/AOD
p80
sg72
Vglobal
p81
sg70
VAutomatic
p82
sg73
I01
sg69
g49
sbsg24
g13
(g27
g15
Ntp83
Rp84
(dp85
g31
g4
sg32
g24
sg33
g34
((lp86
VstorageSite
p87
atp88
Rp89
sg41
(dp90
sg43
g34
((lp91
tp92
Rp93
sg47
Nsg48
I00
sg87
VT3_CH_CERNBOX
p94
sbsg25
g13
(g27
g15
Ntp95
Rp96
(dp97
g31
g4
sg32
g25
sg33
g34
((lp98
tp99
Rp100
sg41
(dp101
sg43
g34
((lp102
tp103
Rp104
sg47
Nsg48
I00
sbsg26
g13
(g27
g15
Ntp105
Rp106
(dp107
g31
g4
sg32
g26
sg33
g34
((lp108
tp109
Rp110
sg41
(dp111
sg43
g34
((lp112
tp113
Rp114
sg47
Nsg48
I00
sbsbs.