ccopy_reg
_reconstructor
p0
(cFWCore.ParameterSet.Config
Process
p1
c__builtin__
object
p2
Ntp3
Rp4
(dp5
V_Process__name
p6
VReco
p7
sV_Process__filters
p8
(dp9
sV_Process__producers
p10
(dp11
sV_Process__switchproducers
p12
(dp13
sV_Process__source
p14
g0
(cFWCore.ParameterSet.Modules
Source
p15
g2
Ntp16
Rp17
(dp18
V_TypedParameterizable__type
p19
VPoolSource
p20
sV_Parameterizable__parameterNames
p21
(lp22
VfileNames
p23
asV_isFrozen
p24
I00
sV_Parameterizable__validator
p25
Nsg23
g0
(cFWCore.ParameterSet.Types
vstring
p26
c__builtin__
list
p27
(lp28
tp29
Rp30
(dp31
g24
I00
sV_ParameterTypeBase__isTracked
p32
I00
sV_isModified
p33
I00
sV_nPerLine
p34
I1
sbsg33
I00
sV_filename
p35
V/cvmfs/cms.cern.ch/slc7_amd64_gcc900/cms/cmssw/CMSSW_12_0_0/python/FWCore/ParameterSet/Modules.py
p36
sV_lineNumber
p37
I195
sbsV_Process__looper
p38
NsV_Process__subProcesses
p39
(lp40
sV_Process__schedule
p41
NsV_Process__analyzers
p42
(dp43
Vtrigger
p44
g0
(cFWCore.ParameterSet.Modules
EDAnalyzer
p45
g2
Ntp46
Rp47
(dp48
g19
VTriggerAnalyzer
p49
sg21
(lp50
Vbits
p51
asg24
I00
sg25
Nsg51
g0
(cFWCore.ParameterSet.Types
InputTag
p52
g2
Ntp53
Rp54
(dp55
g24
I00
sg32
I01
sg33
I00
sV_InputTag__moduleLabel
p56
VTriggerResults
p57
sV_InputTag__productInstance
p58
V
p59
sV_InputTag__processName
p60
VHLT
p61
sbsg33
I00
sg35
V/eos/home-a/anpetkov/ElectronReconstructionUL_MyTool/CMSSW_12_0_0/src/Reco/RecoAnalyzer/python/ConfFile_cfg.py
p62
sg37
I12
sV_Labelable__label
p63
g44
sbsVreco
p64
g0
(g45
g2
Ntp65
Rp66
(dp67
g19
VRecoAnalyzer
p68
sg21
(lp69
VElectron
p70
aVSuperClusterEB
p71
aVSuperClusterEE
p72
aVConversions
p73
aVBeamSpot
p74
aVeleIdLoose
p75
aVeleIdRobustLoose
p76
aVeleIdRobustTight
p77
aVeleIdTight
p78
aVRho
p79
asg24
I00
sg25
Nsg70
g0
(g52
g2
Ntp80
Rp81
(dp82
g24
I00
sg32
I00
sg33
I00
sg56
VgedGsfElectrons
p83
sg58
g59
sg60
g59
sbsg33
I00
sg71
g0
(g52
g2
Ntp84
Rp85
(dp86
g24
I00
sg32
I00
sg33
I00
sg56
VparticleFlowSuperClusterECAL
p87
sg58
VparticleFlowSuperClusterECALBarrel
p88
sg60
g59
sbsg72
g0
(g52
g2
Ntp89
Rp90
(dp91
g24
I00
sg32
I00
sg33
I00
sg56
g87
sg58
VparticleFlowSuperClusterECALEndcapWithPreshower
p92
sg60
g59
sbsg73
g0
(g52
g2
Ntp93
Rp94
(dp95
g24
I00
sg32
I00
sg33
I00
sg56
VallConversions
p96
sg58
g59
sg60
g59
sbsg74
g0
(g52
g2
Ntp97
Rp98
(dp99
g24
I00
sg32
I00
sg33
I00
sg56
VofflineBeamSpot
p100
sg58
g59
sg60
g59
sbsg75
g0
(g52
g2
Ntp101
Rp102
(dp103
g24
I00
sg32
I00
sg33
I00
sg56
VeidLoose
p104
sg58
g59
sg60
g59
sbsg76
g0
(g52
g2
Ntp105
Rp106
(dp107
g24
I00
sg32
I00
sg33
I00
sg56
VeidRobustLoose
p108
sg58
g59
sg60
g59
sbsg77
g0
(g52
g2
Ntp109
Rp110
(dp111
g24
I00
sg32
I00
sg33
I00
sg56
VeidRobustTight
p112
sg58
g59
sg60
g59
sbsg78
g0
(g52
g2
Ntp113
Rp114
(dp115
g24
I00
sg32
I00
sg33
I00
sg56
VeidTight
p116
sg58
g59
sg60
g59
sbsg79
g0
(g52
g2
Ntp117
Rp118
(dp119
g24
I00
sg32
I00
sg33
I00
sg56
VfixedGridRhoAll
p120
sg58
g59
sg60
g59
sbsg35
g62
sg37
I16
sg63
g64
sbssV_Process__outputmodules
p121
(dp122
sV_Process__paths
p123
g0
(cFWCore.ParameterSet.DictTypes
SortedKeysDict
p124
c__builtin__
dict
p125
(dp126
Vp
p127
g0
(cFWCore.ParameterSet.SequenceTypes
Path
p128
g2
Ntp129
Rp130
(dp131
g24
I00
sV_seq
p132
g0
(cFWCore.ParameterSet.SequenceTypes
_SequenceCollection
p133
g2
Ntp134
Rp135
(dp136
V_collection
p137
(lp138
g66
asbsg33
I00
sV_tasks
p139
g0
(cFWCore.ParameterSet.OrderedSet
OrderedSet
p140
g2
Ntp141
Rp142
(dp143
Vend
p144
(lp145
Nag145
ag145
asVmap
p146
(dp147
sbsg63
g127
sbstp148
Rp149
(dp150
Vlist
p151
(lp152
g127
asbsV_Process__endpaths
p153
g0
(g124
g125
(dp154
tp155
Rp156
(dp157
g151
(lp158
sbsV_Process__sequences
p159
(dp160
sV_Process__tasks
p161
(dp162
sV_Process__services
p163
(dp164
VMessageLogger
p165
g0
(cFWCore.ParameterSet.Modules
Service
p166
g2
Ntp167
Rp168
(dp169
g19
g165
sg21
(lp170
VsuppressWarning
p171
aVsuppressFwkInfo
p172
aVsuppressInfo
p173
aVsuppressDebug
p174
aVdebugModules
p175
aVcout
p176
aVdefault
p177
aVcerr
p178
aVfiles
p179
asg24
I00
sg25
g0
(cFWCore.ParameterSet.Types
_OptionalParameter
p180
g2
Ntp181
Rp182
(dp183
g24
I00
sg32
I00
sg33
I00
sV_ProxyParameter__type
p184
g0
(cFWCore.ParameterSet.Types
_PSetTemplate
p185
g2
Ntp186
Rp187
(dp188
V_pset
p189
g0
(cFWCore.ParameterSet.Types
PSet
p190
g2
Ntp191
Rp192
(dp193
g24
I00
sg32
I01
sg33
I00
sg21
(lp194
VreportEvery
p195
aVlimit
p196
aVtimespan
p197
asg25
Nsg195
g0
(cFWCore.ParameterSet.Types
int32
p198
g2
Ntp199
Rp200
(dp201
g24
I00
sg32
I00
sg33
I00
sV_value
p202
I1
sbsg196
g0
(g180
g2
Ntp203
Rp204
(dp205
g24
I00
sg32
I00
sg33
I00
sg184
g198
sV_ProxyParameter__value
p206
Nsbsg197
g0
(g180
g2
Ntp207
Rp208
(dp209
g24
I00
sg32
I00
sg33
I00
sg184
g198
sg206
NsbsbsV_PSetTemplate__value
p210
Nsbsg206
Nsbsg171
g0
(g26
g27
(lp211
tp212
Rp213
(dp214
g24
I00
sg32
I00
sg33
I00
sg34
I1
sbsg33
I00
sg172
g0
(g26
g27
(lp215
tp216
Rp217
(dp218
g24
I00
sg32
I00
sg33
I00
sg34
I1
sbsg173
g0
(g26
g27
(lp219
tp220
Rp221
(dp222
g24
I00
sg32
I00
sg33
I00
sg34
I1
sbsg174
g0
(g26
g27
(lp223
tp224
Rp225
(dp226
g24
I00
sg32
I00
sg33
I00
sg34
I1
sbsg175
g0
(g26
g27
(lp227
tp228
Rp229
(dp230
g24
I00
sg32
I00
sg33
I00
sg34
I1
sbsg176
g0
(g190
g2
Ntp231
Rp232
(dp233
g24
I00
sg32
I00
sg33
I00
sg21
(lp234
VnoLineBreaks
p235
aVnoTimeStamps
p236
aVlineLength
p237
aVthreshold
p238
aVstatisticsThreshold
p239
aVenableStatistics
p240
aVresetStatistics
p241
aVenable
p242
asg25
g182
sg235
g0
(g180
g2
Ntp243
Rp244
(dp245
g24
I00
sg32
I00
sg33
I00
sg184
cFWCore.ParameterSet.Types
bool
p246
sg206
Nsbsg236
g0
(g180
g2
Ntp247
Rp248
(dp249
g24
I00
sg32
I00
sg33
I00
sg184
g246
sg206
Nsbsg237
g0
(g180
g2
Ntp250
Rp251
(dp252
g24
I00
sg32
I00
sg33
I00
sg184
g198
sg206
Nsbsg238
g0
(g180
g2
Ntp253
Rp254
(dp255
g24
I00
sg32
I00
sg33
I00
sg184
cFWCore.ParameterSet.Types
string
p256
sg206
Nsbsg239
g0
(g180
g2
Ntp257
Rp258
(dp259
g24
I00
sg32
I00
sg33
I00
sg184
g256
sg206
Nsbsg240
g0
(g246
g2
Ntp260
Rp261
(dp262
g24
I00
sg32
I00
sg33
I00
sg202
I00
sbsg241
g0
(g246
g2
Ntp263
Rp264
(dp265
g24
I00
sg32
I00
sg33
I00
sg202
I00
sbsg242
g0
(g246
g2
Ntp266
Rp267
(dp268
g24
I00
sg32
I00
sg33
I00
sg202
I00
sbsbsg177
g0
(g190
g2
Ntp269
Rp270
(dp271
g24
I00
sg32
I00
sg33
I00
sg21
(lp272
g195
ag196
ag197
ag235
ag236
ag237
ag238
ag239
asg25
g182
sg195
g0
(g198
g2
Ntp273
Rp274
(dp275
g24
I00
sg32
I00
sg33
I00
sg202
I1
sbsg196
g0
(g180
g2
Ntp276
Rp277
(dp278
g24
I00
sg32
I00
sg33
I00
sg184
g198
sg206
Nsbsg197
g0
(g180
g2
Ntp279
Rp280
(dp281
g24
I00
sg32
I00
sg33
I00
sg184
g198
sg206
Nsbsg235
g0
(g246
g2
Ntp282
Rp283
(dp284
g24
I00
sg32
I00
sg33
I00
sg202
I00
sbsg236
g0
(g246
g2
Ntp285
Rp286
(dp287
g24
I00
sg32
I00
sg33
I00
sg202
I00
sbsg237
g0
(g198
g2
Ntp288
Rp289
(dp290
g24
I00
sg32
I00
sg33
I00
sg202
I80
sbsg238
g0
(g256
g2
Ntp291
Rp292
(dp293
g24
I00
sg32
I00
sg33
I00
sg202
VINFO
p294
sbsg239
g0
(g256
g2
Ntp295
Rp296
(dp297
g24
I00
sg32
I00
sg33
I00
sg202
g294
sbsbsg178
g0
(g190
g2
Ntp298
Rp299
(dp300
g24
I00
sg32
I00
sg33
I00
sg21
(lp301
g235
ag236
ag237
ag238
ag239
ag242
ag240
ag241
ag294
aVFwkReport
p302
ag177
aVRoot_NoDictionary
p303
aVFwkSummary
p304
asg25
g182
sg235
g0
(g180
g2
Ntp305
Rp306
(dp307
g24
I00
sg32
I00
sg33
I00
sg184
g246
sg206
Nsbsg236
g0
(g246
g2
Ntp308
Rp309
(dp310
g24
I00
sg32
I00
sg33
I00
sg202
I00
sbsg237
g0
(g180
g2
Ntp311
Rp312
(dp313
g24
I00
sg32
I00
sg33
I00
sg184
g198
sg206
Nsbsg238
g0
(g256
g2
Ntp314
Rp315
(dp316
g24
I00
sg32
I00
sg33
I00
sg202
g294
sbsg239
g0
(g256
g2
Ntp317
Rp318
(dp319
g24
I00
sg32
I00
sg33
I00
sg202
VWARNING
p320
sbsg242
g0
(g246
g2
Ntp321
Rp322
(dp323
g24
I00
sg32
I00
sg33
I00
sg202
I01
sbsg240
g0
(g246
g2
Ntp324
Rp325
(dp326
g24
I00
sg32
I00
sg33
I00
sg202
I01
sbsg241
g0
(g246
g2
Ntp327
Rp328
(dp329
g24
I00
sg32
I00
sg33
I00
sg202
I00
sbsg294
g0
(g190
g2
Ntp330
Rp331
(dp332
g24
I00
sg32
I00
sg33
I00
sg21
(lp333
g196
asg25
Nsg196
g0
(g198
g2
Ntp334
Rp335
(dp336
g24
I00
sg32
I00
sg33
I00
sg202
I0
sbsbsg302
g0
(g190
g2
Ntp337
Rp338
(dp339
g24
I00
sg32
I00
sg33
I01
sg21
(lp340
g195
ag196
asg25
Nsg195
g0
(g198
g2
Ntp341
Rp342
(dp343
g24
I00
sg32
I00
sg33
I01
sg202
I1000000
sbsg196
g0
(g198
g2
Ntp344
Rp345
(dp346
g24
I00
sg32
I00
sg33
I00
sg202
I10000000
sbsbsg177
g0
(g190
g2
Ntp347
Rp348
(dp349
g24
I00
sg32
I00
sg33
I00
sg21
(lp350
g196
asg25
Nsg196
g0
(g198
g2
Ntp351
Rp352
(dp353
g24
I00
sg32
I00
sg33
I00
sg202
I10000000
sbsbsg303
g0
(g190
g2
Ntp354
Rp355
(dp356
g24
I00
sg32
I00
sg33
I00
sg21
(lp357
g196
asg25
Nsg196
g0
(g198
g2
Ntp358
Rp359
(dp360
g24
I00
sg32
I00
sg33
I00
sg202
I0
sbsbsg304
g0
(g190
g2
Ntp361
Rp362
(dp363
g24
I00
sg32
I00
sg33
I00
sg21
(lp364
g195
ag196
asg25
Nsg195
g0
(g198
g2
Ntp365
Rp366
(dp367
g24
I00
sg32
I00
sg33
I00
sg202
I1
sbsg196
g0
(g198
g2
Ntp368
Rp369
(dp370
g24
I00
sg32
I00
sg33
I00
sg202
I10000000
sbsbsbsg179
g0
(g190
g2
Ntp371
Rp372
(dp373
g24
I00
sg32
I00
sg33
I00
sg21
(lp374
sg25
g0
(g180
g2
Ntp375
Rp376
(dp377
g24
I00
sg32
I00
sg33
I00
sg184
g0
(g185
g2
Ntp378
Rp379
(dp380
g189
g0
(g190
g2
Ntp381
Rp382
(dp383
g24
I00
sg32
I01
sg33
I00
sg21
(lp384
g235
ag236
ag237
ag238
ag239
ag240
ag241
aVfilename
p385
aVextension
p386
aVoutput
p387
asg25
g182
sg235
g0
(g180
g2
Ntp388
Rp389
(dp390
g24
I00
sg32
I00
sg33
I00
sg184
g246
sg206
Nsbsg236
g0
(g180
g2
Ntp391
Rp392
(dp393
g24
I00
sg32
I00
sg33
I00
sg184
g246
sg206
Nsbsg237
g0
(g180
g2
Ntp394
Rp395
(dp396
g24
I00
sg32
I00
sg33
I00
sg184
g198
sg206
Nsbsg238
g0
(g180
g2
Ntp397
Rp398
(dp399
g24
I00
sg32
I00
sg33
I00
sg184
g256
sg206
Nsbsg239
g0
(g180
g2
Ntp400
Rp401
(dp402
g24
I00
sg32
I00
sg33
I00
sg184
g256
sg206
Nsbsg240
g0
(g246
g2
Ntp403
Rp404
(dp405
g24
I00
sg32
I00
sg33
I00
sg202
I00
sbsg241
g0
(g246
g2
Ntp406
Rp407
(dp408
g24
I00
sg32
I00
sg33
I00
sg202
I00
sbsg385
g0
(g180
g2
Ntp409
Rp410
(dp411
g24
I00
sg32
I00
sg33
I00
sg184
g256
sg206
Nsbsg386
g0
(g180
g2
Ntp412
Rp413
(dp414
g24
I00
sg32
I00
sg33
I00
sg184
g256
sg206
Nsbsg387
g0
(g180
g2
Ntp415
Rp416
(dp417
g24
I00
sg32
I00
sg33
I00
sg184
g256
sg206
Nsbsbsg210
Nsbsg206
Nsbsbsg35
g36
sg37
I13
sV_inProcess
p418
I01
sbsVTFileService
p419
g0
(g166
g2
Ntp420
Rp421
(dp422
g19
g419
sg21
(lp423
VfileName
p424
asg24
I00
sg25
Nsg424
g0
(g256
g2
Ntp425
Rp426
(dp427
g24
I00
sg32
I01
sg33
I00
sg202
VReco_tree.root
p428
sbsg33
I00
sg35
g36
sg37
I13
sg418
I01
sbssV_Process__essources
p429
(dp430
sV_Process__esproducers
p431
(dp432
sV_Process__esprefers
p433
(dp434
sV_Process__aliases
p435
(dp436
sV_Process__psets
p437
(dp438
Voptions
p439
g0
(g190
g2
Ntp440
Rp441
(dp442
g24
I00
sg32
I00
sg33
I01
sg21
(lp443
VnumberOfThreads
p444
aVnumberOfStreams
p445
aVnumberOfConcurrentRuns
p446
aVnumberOfConcurrentLuminosityBlocks
p447
aVeventSetup
p448
aVwantSummary
p449
aVfileMode
p450
aVforceEventSetupCacheClearOnNewRun
p451
aVthrowIfIllegalParameter
p452
aVprintDependencies
p453
aVdeleteNonConsumedUnscheduledModules
p454
aVsizeOfStackForThreadsInKB
p455
aVRethrow
p456
aVSkipEvent
p457
aVFailPath
p458
aVIgnoreCompletely
p459
aVcanDeleteEarly
p460
aVdumpOptions
p461
aVallowUnscheduled
p462
aVemptyRunLumiMode
p463
aVmakeTriggerResults
p464
asg25
Nsg444
g0
(cFWCore.ParameterSet.Types
uint32
p465
g2
Ntp466
Rp467
(dp468
g24
I00
sg32
I00
sg33
I00
sg202
I1
sbsg445
g0
(g465
g2
Ntp469
Rp470
(dp471
g24
I00
sg32
I00
sg33
I00
sg202
I0
sbsg446
g0
(g465
g2
Ntp472
Rp473
(dp474
g24
I00
sg32
I00
sg33
I00
sg202
I1
sbsg447
g0
(g465
g2
Ntp475
Rp476
(dp477
g24
I00
sg32
I00
sg33
I00
sg202
I0
sbsg448
g0
(g190
g2
Ntp478
Rp479
(dp480
g24
I00
sg32
I00
sg33
I00
sg21
(lp481
VnumberOfConcurrentIOVs
p482
aVforceNumberOfConcurrentIOVs
p483
asg25
Nsg482
g0
(g465
g2
Ntp484
Rp485
(dp486
g24
I00
sg32
I00
sg33
I00
sg202
I0
sbsg483
g0
(g190
g2
Ntp487
Rp488
(dp489
g24
I00
sg32
I00
sg33
I00
sg21
(lp490
sg25
g0
(cFWCore.ParameterSet.Types
_RequiredParameter
p491
g2
Ntp492
Rp493
(dp494
g24
I00
sg32
I00
sg33
I00
sg184
g465
sg206
Nsbsbsbsg449
g0
(g246
g2
Ntp495
Rp496
(dp497
g24
I00
sg32
I00
sg33
I00
sg202
I00
sbsg450
g0
(g256
g2
Ntp498
Rp499
(dp500
g24
I00
sg32
I00
sg33
I00
sg202
VFULLMERGE
p501
sbsg451
g0
(g246
g2
Ntp502
Rp503
(dp504
g24
I00
sg32
I00
sg33
I00
sg202
I00
sbsg452
g0
(g246
g2
Ntp505
Rp506
(dp507
g24
I00
sg32
I00
sg33
I00
sg202
I01
sbsg453
g0
(g246
g2
Ntp508
Rp509
(dp510
g24
I00
sg32
I00
sg33
I00
sg202
I00
sbsg454
g0
(g246
g2
Ntp511
Rp512
(dp513
g24
I00
sg32
I00
sg33
I00
sg202
I01
sbsg455
g0
(g180
g2
Ntp514
Rp515
(dp516
g24
I00
sg32
I00
sg33
I00
sg184
g465
sg206
Nsbsg456
g0
(g26
g27
(lp517
tp518
Rp519
(dp520
g24
I00
sg32
I00
sg33
I00
sg34
I1
sbsg457
g0
(g26
g27
(lp521
tp522
Rp523
(dp524
g24
I00
sg32
I00
sg33
I00
sg34
I1
sbsg458
g0
(g26
g27
(lp525
tp526
Rp527
(dp528
g24
I00
sg32
I00
sg33
I00
sg34
I1
sbsg459
g0
(g26
g27
(lp529
tp530
Rp531
(dp532
g24
I00
sg32
I00
sg33
I00
sg34
I1
sbsg460
g0
(g26
g27
(lp533
tp534
Rp535
(dp536
g24
I00
sg32
I00
sg33
I00
sg34
I1
sbsg461
g0
(g246
g2
Ntp537
Rp538
(dp539
g24
I00
sg32
I00
sg33
I00
sg202
I00
sbsg462
g0
(cFWCore.ParameterSet.Types
_ObsoleteParameter
p540
g2
Ntp541
Rp542
(dp543
g24
I00
sg32
I00
sg33
I00
sg184
g246
sg206
Nsbsg463
g0
(g540
g2
Ntp544
Rp545
(dp546
g24
I00
sg32
I00
sg33
I00
sg184
g256
sg206
Nsbsg464
g0
(g540
g2
Ntp547
Rp548
(dp549
g24
I00
sg32
I00
sg33
I00
sg184
g246
sg206
Nsbsg63
g439
sbsVmaxLuminosityBlocks
p550
g0
(g190
g2
Ntp551
Rp552
(dp553
g24
I00
sg32
I00
sg33
I00
sg21
(lp554
Vinput
p555
asg25
Nsg555
g0
(g198
g2
Ntp556
Rp557
(dp558
g24
I00
sg32
I00
sg33
I00
sg202
I-1
sbsg63
g550
sbsVmaxEvents
p559
g0
(g190
g2
Ntp560
Rp561
(dp562
g24
I00
sg32
I00
sg33
I01
sg21
(lp563
g555
ag387
asg25
Nsg555
g0
(g198
g2
Ntp564
Rp565
(dp566
g24
I00
sg32
I00
sg33
I00
sg202
I-1
sbsg387
g0
(g180
g2
Ntp567
Rp568
(dp569
g24
I00
sg32
I00
sg33
I00
sg184
g0
(cFWCore.ParameterSet.Types
_AllowedParameterTypes
p570
g2
Ntp571
Rp572
(dp573
V_AllowedParameterTypes__types
p574
(g198
g190
tp575
sV_AllowedParameterTypes__value
p576
NsV__name__
p577
Vallowed(cms.int32,cms.PSet)
p578
sbsg206
Nsbsg63
g559
sbssV_Process__vpsets
p579
(dp580
sV_cloneToObjectDict
p581
(dp582
L140681613869168L
g441
sL140681619674976L
g0
(g190
g2
Ntp583
Rp584
(dp585
g24
I00
sg32
I00
sg33
I01
sg21
(lp586
g555
ag387
asg25
Nsg555
g0
(g180
g2
Ntp587
Rp588
(dp589
g24
I00
sg32
I00
sg33
I00
sg184
g198
sg206
Nsbsg387
g0
(g180
g2
Ntp590
Rp591
(dp592
g24
I00
sg32
I00
sg33
I00
sg184
g0
(g570
g2
Ntp593
Rp594
(dp595
g574
(g198
g190
tp596
sg576
Nsg577
Vallowed(cms.int32,cms.PSet)
p597
sbsg206
Nsbsg63
NsbsL140681619675072L
g552
sL140681615313408L
g561
sL140681615312880L
g47
sL140681615313264L
g66
sL140681615314608L
g130
ssV_Process__InExtendCall
p598
I00
sV_Process__partialschedules
p599
(dp600
sV_Process__isStrict
p601
I00
sV_Process__modifiers
p602
(tsg439
g441
sg550
g552
sg165
g168
sg559
g561
sVsource
p603
g17
sg20
g17
sg44
g47
sg64
g66
sg419
g421
sg127
g130
sb.